target datalayout = "e-m:e-p270:32:32-p271:32:32-p272:64:64-i64:64-i128:128-f80:128-n8:16:32:64-S128"
target triple = "x86_64-pc-linux-gnu"

%"class.arrow::internal::FloatToStringFormatter" = type { %"class.std::unique_ptr" }
%"class.std::unique_ptr" = type { %"struct.std::__uniq_ptr_data" }
%"struct.std::__uniq_ptr_data" = type { %"class.std::__uniq_ptr_impl" }
%"class.std::__uniq_ptr_impl" = type { %"class.std::tuple" }
%"class.std::tuple" = type { %"struct.std::_Tuple_impl" }
%"struct.std::_Tuple_impl" = type { %"struct.std::_Head_base.1" }
%"struct.std::_Head_base.1" = type { ptr }
%"struct.arrow::internal::FloatToStringFormatter::Impl" = type { %"class.arrow_vendored::double_conversion::DoubleToStringConverter" }
%"class.arrow_vendored::double_conversion::DoubleToStringConverter" = type { i32, ptr, ptr, i8, i32, i32, i32, i32, i32 }
%"class.arrow_vendored::double_conversion::StringBuilder" = type { %"class.arrow_vendored::double_conversion::Vector", i32, [4 x i8] }
%"class.arrow_vendored::double_conversion::Vector" = type <{ ptr, i32, [4 x i8] }>

; Function Attrs: mustprogress nounwind uwtable
define linkonce_odr noundef nonnull align 8 dereferenceable(8) ptr @_ZNSt10_Head_baseILm0EPN5arrow8internal22FloatToStringFormatter4ImplELb0EE7_M_headERKS5_(ptr noundef nonnull align 8 dereferenceable(8) %0) #3 comdat align 2 {
  %2 = alloca ptr, align 8
  store ptr %0, ptr %2, align 8, !tbaa !78
  %3 = load ptr, ptr %2, align 8, !tbaa !78
  %4 = getelementptr inbounds nuw %"struct.std::_Head_base.1", ptr %3, i32 0, i32 0
  ret ptr %4
}

; Function Attrs: mustprogress nounwind uwtable
define linkonce_odr noundef nonnull align 8 dereferenceable(8) ptr @_ZNSt11_Tuple_implILm0EJPN5arrow8internal22FloatToStringFormatter4ImplESt14default_deleteIS3_EEE7_M_headERKS7_(ptr noundef nonnull align 8 dereferenceable(8) %0) #3 comdat align 2 {
  %2 = alloca ptr, align 8
  store ptr %0, ptr %2, align 8, !tbaa !74
  %3 = load ptr, ptr %2, align 8, !tbaa !74
  %4 = call noundef nonnull align 8 dereferenceable(8) ptr @_ZNSt10_Head_baseILm0EPN5arrow8internal22FloatToStringFormatter4ImplELb0EE7_M_headERKS5_(ptr noundef nonnull align 8 dereferenceable(8) %3) #9
  ret ptr %4
}

; Function Attrs: mustprogress nounwind uwtable
define linkonce_odr noundef nonnull align 8 dereferenceable(8) ptr @_ZSt12__get_helperILm0EPN5arrow8internal22FloatToStringFormatter4ImplEJSt14default_deleteIS3_EEERKT0_RKSt11_Tuple_implIXT_EJS7_DpT1_EE(ptr noundef nonnull align 8 dereferenceable(8) %0) #3 comdat {
  %2 = alloca ptr, align 8
  store ptr %0, ptr %2, align 8, !tbaa !74
  %3 = load ptr, ptr %2, align 8, !tbaa !74
  %4 = call noundef nonnull align 8 dereferenceable(8) ptr @_ZNSt11_Tuple_implILm0EJPN5arrow8internal22FloatToStringFormatter4ImplESt14default_deleteIS3_EEE7_M_headERKS7_(ptr noundef nonnull align 8 dereferenceable(8) %3) #9
  ret ptr %4
}

; Function Attrs: mustprogress nounwind uwtable
define linkonce_odr noundef nonnull align 8 dereferenceable(8) ptr @_ZSt3getILm0EJPN5arrow8internal22FloatToStringFormatter4ImplESt14default_deleteIS3_EEERKNSt13tuple_elementIXT_ESt5tupleIJDpT0_EEE4typeERKSB_(ptr noundef nonnull align 8 dereferenceable(8) %0) #3 comdat {
  %2 = alloca ptr, align 8
  store ptr %0, ptr %2, align 8, !tbaa !72
  %3 = load ptr, ptr %2, align 8, !tbaa !72
  %4 = call noundef nonnull align 8 dereferenceable(8) ptr @_ZSt12__get_helperILm0EPN5arrow8internal22FloatToStringFormatter4ImplEJSt14default_deleteIS3_EEERKT0_RKSt11_Tuple_implIXT_EJS7_DpT1_EE(ptr noundef nonnull align 8 dereferenceable(8) %3) #9
  ret ptr %4
}

; Function Attrs: mustprogress nounwind uwtable
define linkonce_odr noundef ptr @_ZNK14arrow_vendored17double_conversion6VectorIcE5startEv(ptr noundef nonnull align 8 dereferenceable(12) %0) #3 comdat align 2 {
  %2 = alloca ptr, align 8
  store ptr %0, ptr %2, align 8, !tbaa !60
  %3 = load ptr, ptr %2, align 8
  %4 = getelementptr inbounds nuw %"class.arrow_vendored::double_conversion::Vector", ptr %3, i32 0, i32 0
  %5 = load ptr, ptr %4, align 8, !tbaa !62
  ret ptr %5
}

; Function Attrs: mustprogress nounwind uwtable
define linkonce_odr noundef nonnull align 1 dereferenceable(1) ptr @_ZNK14arrow_vendored17double_conversion6VectorIcEixEi(ptr noundef nonnull align 8 dereferenceable(12) %0, i32 noundef %1) #3 comdat align 2 {
  %3 = alloca ptr, align 8
  %4 = alloca i32, align 4
  store ptr %0, ptr %3, align 8, !tbaa !60
  store i32 %1, ptr %4, align 4, !tbaa !12
  %5 = load ptr, ptr %3, align 8
  %6 = getelementptr inbounds nuw %"class.arrow_vendored::double_conversion::Vector", ptr %5, i32 0, i32 0
  %7 = load ptr, ptr %6, align 8, !tbaa !62
  %8 = load i32, ptr %4, align 4, !tbaa !12
  %9 = sext i32 %8 to i64
  %10 = getelementptr inbounds i8, ptr %7, i64 %9
  ret ptr %10
}

; Function Attrs: mustprogress nounwind uwtable
define linkonce_odr noundef ptr @_ZNKSt15__uniq_ptr_implIN5arrow8internal22FloatToStringFormatter4ImplESt14default_deleteIS3_EE6_M_ptrEv(ptr noundef nonnull align 8 dereferenceable(8) %0) #3 comdat align 2 {
  %2 = alloca ptr, align 8
  store ptr %0, ptr %2, align 8, !tbaa !70
  %3 = load ptr, ptr %2, align 8
  %4 = getelementptr inbounds nuw %"class.std::__uniq_ptr_impl", ptr %3, i32 0, i32 0
  %5 = call noundef nonnull align 8 dereferenceable(8) ptr @_ZSt3getILm0EJPN5arrow8internal22FloatToStringFormatter4ImplESt14default_deleteIS3_EEERKNSt13tuple_elementIXT_ESt5tupleIJDpT0_EEE4typeERKSB_(ptr noundef nonnull align 8 dereferenceable(8) %4) #9
  %6 = load ptr, ptr %5, align 8, !tbaa !8
  ret ptr %6
}

; Function Attrs: noinline noreturn nounwind uwtable
define linkonce_odr hidden void @__clang_call_terminate(ptr noundef %0) #6 comdat {
  %2 = call ptr @__cxa_begin_catch(ptr %0) #9
  call void @_ZSt9terminatev() #11
  unreachable
}

; Function Attrs: mustprogress uwtable
define linkonce_odr noundef ptr @_ZN14arrow_vendored17double_conversion13StringBuilder8FinalizeEv(ptr noundef nonnull align 8 dereferenceable(20) %0) #0 comdat align 2 {
  %2 = alloca ptr, align 8
  store ptr %0, ptr %2, align 8, !tbaa !29
  %3 = load ptr, ptr %2, align 8
  %4 = getelementptr inbounds nuw %"class.arrow_vendored::double_conversion::StringBuilder", ptr %3, i32 0, i32 0
  %5 = getelementptr inbounds nuw %"class.arrow_vendored::double_conversion::StringBuilder", ptr %3, i32 0, i32 1
  %6 = load i32, ptr %5, align 8, !tbaa !31
  %7 = call noundef nonnull align 1 dereferenceable(1) ptr @_ZNK14arrow_vendored17double_conversion6VectorIcEixEi(ptr noundef nonnull align 8 dereferenceable(12) %4, i32 noundef %6)
  store i8 0, ptr %7, align 1, !tbaa !16
  %8 = getelementptr inbounds nuw %"class.arrow_vendored::double_conversion::StringBuilder", ptr %3, i32 0, i32 1
  store i32 -1, ptr %8, align 8, !tbaa !31
  %9 = getelementptr inbounds nuw %"class.arrow_vendored::double_conversion::StringBuilder", ptr %3, i32 0, i32 0
  %10 = call noundef ptr @_ZNK14arrow_vendored17double_conversion6VectorIcE5startEv(ptr noundef nonnull align 8 dereferenceable(12) %9)
  ret ptr %10
}

; Function Attrs: mustprogress nounwind uwtable
define linkonce_odr noundef zeroext i1 @_ZNK14arrow_vendored17double_conversion13StringBuilder12is_finalizedEv(ptr noundef nonnull align 8 dereferenceable(20) %0) #3 comdat align 2 {
  %2 = alloca ptr, align 8
  store ptr %0, ptr %2, align 8, !tbaa !29
  %3 = load ptr, ptr %2, align 8
  %4 = getelementptr inbounds nuw %"class.arrow_vendored::double_conversion::StringBuilder", ptr %3, i32 0, i32 1
  %5 = load i32, ptr %4, align 8, !tbaa !31
  %6 = icmp slt i32 %5, 0
  ret i1 %6
}

; Function Attrs: mustprogress nounwind uwtable
define linkonce_odr noundef ptr @_ZNKSt10unique_ptrIN5arrow8internal22FloatToStringFormatter4ImplESt14default_deleteIS3_EE3getEv(ptr noundef nonnull align 8 dereferenceable(8) %0) #3 comdat align 2 {
  %2 = alloca ptr, align 8
  store ptr %0, ptr %2, align 8, !tbaa !10
  %3 = load ptr, ptr %2, align 8
  %4 = getelementptr inbounds nuw %"class.std::unique_ptr", ptr %3, i32 0, i32 0
  %5 = call noundef ptr @_ZNKSt15__uniq_ptr_implIN5arrow8internal22FloatToStringFormatter4ImplESt14default_deleteIS3_EE6_M_ptrEv(ptr noundef nonnull align 8 dereferenceable(8) %4) #9
  ret ptr %5
}

; Function Attrs: mustprogress nounwind uwtable
define linkonce_odr void @_ZN14arrow_vendored17double_conversion6VectorIcEC2EPci(ptr noundef nonnull align 8 dereferenceable(12) %0, ptr noundef %1, i32 noundef %2) unnamed_addr #3 comdat align 2 {
  %4 = alloca ptr, align 8
  %5 = alloca ptr, align 8
  %6 = alloca i32, align 4
  store ptr %0, ptr %4, align 8, !tbaa !60
  store ptr %1, ptr %5, align 8, !tbaa !14
  store i32 %2, ptr %6, align 4, !tbaa !12
  %7 = load ptr, ptr %4, align 8
  %8 = getelementptr inbounds nuw %"class.arrow_vendored::double_conversion::Vector", ptr %7, i32 0, i32 0
  %9 = load ptr, ptr %5, align 8, !tbaa !14
  store ptr %9, ptr %8, align 8, !tbaa !62
  %10 = getelementptr inbounds nuw %"class.arrow_vendored::double_conversion::Vector", ptr %7, i32 0, i32 1
  %11 = load i32, ptr %6, align 4, !tbaa !12
  store i32 %11, ptr %10, align 8, !tbaa !63
  ret void
}

; Function Attrs: mustprogress nounwind uwtable
define linkonce_odr noundef i32 @_ZNK14arrow_vendored17double_conversion13StringBuilder8positionEv(ptr noundef nonnull align 8 dereferenceable(20) %0) #3 comdat align 2 {
  %2 = alloca ptr, align 8
  store ptr %0, ptr %2, align 8, !tbaa !29
  %3 = load ptr, ptr %2, align 8
  %4 = getelementptr inbounds nuw %"class.arrow_vendored::double_conversion::StringBuilder", ptr %3, i32 0, i32 1
  %5 = load i32, ptr %4, align 8, !tbaa !31
  ret i32 %5
}

; Function Attrs: mustprogress nounwind uwtable
define linkonce_odr void @_ZN14arrow_vendored17double_conversion13StringBuilderD2Ev(ptr noundef nonnull align 8 dereferenceable(20) %0) unnamed_addr #3 comdat align 2 personality ptr @__gxx_personality_v0 {
  %2 = alloca ptr, align 8
  store ptr %0, ptr %2, align 8, !tbaa !29
  %3 = load ptr, ptr %2, align 8
  %4 = invoke noundef zeroext i1 @_ZNK14arrow_vendored17double_conversion13StringBuilder12is_finalizedEv(ptr noundef nonnull align 8 dereferenceable(20) %3)
          to label %5 unwind label %10

5:                                                ; preds = %1
  br i1 %4, label %9, label %6

6:                                                ; preds = %5
  %7 = invoke noundef ptr @_ZN14arrow_vendored17double_conversion13StringBuilder8FinalizeEv(ptr noundef nonnull align 8 dereferenceable(20) %3)
          to label %8 unwind label %10

8:                                                ; preds = %6
  br label %9

9:                                                ; preds = %8, %5
  ret void

10:                                               ; preds = %6, %1
  %11 = landingpad { ptr, i32 }
          catch ptr null
  %12 = extractvalue { ptr, i32 } %11, 0
  call void @__clang_call_terminate(ptr %12) #11
  unreachable
}

; Function Attrs: mustprogress uwtable
define linkonce_odr noundef zeroext i1 @_ZNK14arrow_vendored17double_conversion23DoubleToStringConverter10ToShortestEdPNS0_13StringBuilderE(ptr noundef nonnull align 8 dereferenceable(48) %0, double noundef %1, ptr noundef %2) #0 comdat align 2 {
  %4 = alloca ptr, align 8
  %5 = alloca double, align 8
  %6 = alloca ptr, align 8
  store ptr %0, ptr %4, align 8, !tbaa !34
  store double %1, ptr %5, align 8, !tbaa !36
  store ptr %2, ptr %6, align 8, !tbaa !29
  %7 = load ptr, ptr %4, align 8
  %8 = load double, ptr %5, align 8, !tbaa !36
  %9 = load ptr, ptr %6, align 8, !tbaa !29
  %10 = call noundef zeroext i1 @_ZNK14arrow_vendored17double_conversion23DoubleToStringConverter20ToShortestIeeeNumberEdPNS0_13StringBuilderENS1_8DtoaModeE(ptr noundef nonnull align 8 dereferenceable(48) %7, double noundef %8, ptr noundef %9, i32 noundef 0)
  ret i1 %10
}

; Function Attrs: mustprogress nounwind uwtable
define linkonce_odr noundef ptr @_ZNKSt10unique_ptrIN5arrow8internal22FloatToStringFormatter4ImplESt14default_deleteIS3_EEptEv(ptr noundef nonnull align 8 dereferenceable(8) %0) #3 comdat align 2 {
  %2 = alloca ptr, align 8
  store ptr %0, ptr %2, align 8, !tbaa !10
  %3 = load ptr, ptr %2, align 8
  %4 = call noundef ptr @_ZNKSt10unique_ptrIN5arrow8internal22FloatToStringFormatter4ImplESt14default_deleteIS3_EE3getEv(ptr noundef nonnull align 8 dereferenceable(8) %3) #9
  ret ptr %4
}

; Function Attrs: mustprogress uwtable
define linkonce_odr void @_ZN14arrow_vendored17double_conversion13StringBuilderC2EPci(ptr noundef nonnull align 8 dereferenceable(20) %0, ptr noundef %1, i32 noundef %2) unnamed_addr #0 comdat align 2 {
  %4 = alloca ptr, align 8
  %5 = alloca ptr, align 8
  %6 = alloca i32, align 4
  store ptr %0, ptr %4, align 8, !tbaa !29
  store ptr %1, ptr %5, align 8, !tbaa !14
  store i32 %2, ptr %6, align 4, !tbaa !12
  %7 = load ptr, ptr %4, align 8
  %8 = getelementptr inbounds nuw %"class.arrow_vendored::double_conversion::StringBuilder", ptr %7, i32 0, i32 0
  %9 = load ptr, ptr %5, align 8, !tbaa !14
  %10 = load i32, ptr %6, align 4, !tbaa !12
  call void @_ZN14arrow_vendored17double_conversion6VectorIcEC2EPci(ptr noundef nonnull align 8 dereferenceable(12) %8, ptr noundef %9, i32 noundef %10)
  %11 = getelementptr inbounds nuw %"class.arrow_vendored::double_conversion::StringBuilder", ptr %7, i32 0, i32 1
  store i32 0, ptr %11, align 8, !tbaa !31
  ret void
}

; Function Attrs: mustprogress uwtable
define noundef i32 @_ZN5arrow8internal22FloatToStringFormatter11FormatFloatEdPci(ptr noundef nonnull align 8 dereferenceable(8) %0, double noundef %1, ptr noundef %2, i32 noundef %3) #0 align 2 personality ptr @__gxx_personality_v0 {
  %5 = alloca ptr, align 8
  %6 = alloca double, align 8
  %7 = alloca ptr, align 8
  %8 = alloca i32, align 4
  %9 = alloca %"class.arrow_vendored::double_conversion::StringBuilder", align 8
  %10 = alloca i8, align 1
  %11 = alloca ptr, align 8
  %12 = alloca i32, align 4
  store ptr %0, ptr %5, align 8, !tbaa !3
  store double %1, ptr %6, align 8, !tbaa !36
  store ptr %2, ptr %7, align 8, !tbaa !14
  store i32 %3, ptr %8, align 4, !tbaa !12
  %13 = load ptr, ptr %5, align 8
  br label %14

14:                                               ; preds = %15, %4
  br i1 false, label %15, label %16

15:                                               ; preds = %14
  br label %14, !llvm.loop !38

16:                                               ; preds = %14
  br label %17

17:                                               ; preds = %18, %16
  br i1 false, label %18, label %19

18:                                               ; preds = %17
  br label %17, !llvm.loop !39

19:                                               ; preds = %17
  br label %20

20:                                               ; preds = %21, %19
  br i1 false, label %21, label %22

21:                                               ; preds = %20
  br label %20, !llvm.loop !40

22:                                               ; preds = %20
  call void @llvm.lifetime.start.p0(i64 24, ptr %9) #9
  %23 = load ptr, ptr %7, align 8, !tbaa !14
  %24 = load i32, ptr %8, align 4, !tbaa !12
  call void @_ZN14arrow_vendored17double_conversion13StringBuilderC2EPci(ptr noundef nonnull align 8 dereferenceable(20) %9, ptr noundef %23, i32 noundef %24)
  call void @llvm.lifetime.start.p0(i64 1, ptr %10) #9
  %25 = getelementptr inbounds nuw %"class.arrow::internal::FloatToStringFormatter", ptr %13, i32 0, i32 0
  %26 = call noundef ptr @_ZNKSt10unique_ptrIN5arrow8internal22FloatToStringFormatter4ImplESt14default_deleteIS3_EEptEv(ptr noundef nonnull align 8 dereferenceable(8) %25) #9
  %27 = getelementptr inbounds nuw %"struct.arrow::internal::FloatToStringFormatter::Impl", ptr %26, i32 0, i32 0
  %28 = load double, ptr %6, align 8, !tbaa !36
  %29 = invoke noundef zeroext i1 @_ZNK14arrow_vendored17double_conversion23DoubleToStringConverter10ToShortestEdPNS0_13StringBuilderE(ptr noundef nonnull align 8 dereferenceable(48) %27, double noundef %28, ptr noundef %9)
          to label %30 unwind label %34

30:                                               ; preds = %22
  %31 = zext i1 %29 to i8
  store i8 %31, ptr %10, align 1, !tbaa !25
  br label %32

32:                                               ; preds = %33, %30
  br i1 false, label %33, label %38

33:                                               ; preds = %32
  br label %32, !llvm.loop !41

34:                                               ; preds = %41, %22
  %35 = landingpad { ptr, i32 }
          cleanup
  %36 = extractvalue { ptr, i32 } %35, 0
  store ptr %36, ptr %11, align 8
  %37 = extractvalue { ptr, i32 } %35, 1
  store i32 %37, ptr %12, align 4
  call void @llvm.lifetime.end.p0(i64 1, ptr %10) #9
  call void @_ZN14arrow_vendored17double_conversion13StringBuilderD2Ev(ptr noundef nonnull align 8 dereferenceable(20) %9) #9
  call void @llvm.lifetime.end.p0(i64 24, ptr %9) #9
  br label %44

38:                                               ; preds = %32
  br label %39

39:                                               ; preds = %40, %38
  br i1 false, label %40, label %41

40:                                               ; preds = %39
  br label %39, !llvm.loop !42

41:                                               ; preds = %39
  %42 = invoke noundef i32 @_ZNK14arrow_vendored17double_conversion13StringBuilder8positionEv(ptr noundef nonnull align 8 dereferenceable(20) %9)
          to label %43 unwind label %34

43:                                               ; preds = %41
  call void @llvm.lifetime.end.p0(i64 1, ptr %10) #9
  call void @_ZN14arrow_vendored17double_conversion13StringBuilderD2Ev(ptr noundef nonnull align 8 dereferenceable(20) %9) #9
  call void @llvm.lifetime.end.p0(i64 24, ptr %9) #9
  ret i32 %42

44:                                               ; preds = %34
  %45 = load ptr, ptr %11, align 8
  %46 = load i32, ptr %12, align 4
  %47 = insertvalue { ptr, i32 } poison, ptr %45, 0
  %48 = insertvalue { ptr, i32 } %47, i32 %46, 1
  resume { ptr, i32 } %48
}