; Function Attrs: mustprogress uwtable
define noundef i32 @_ZN5arrow8internal22FloatToStringFormatter11FormatFloatEdPci(ptr noundef nonnull readonly align 8 captures(none) dereferenceable(8) %0, double noundef %1, ptr noundef %2, i32 noundef %3) local_unnamed_addr #0 align 2 personality ptr @__gxx_personality_v0 {
  %5 = alloca %"class.arrow_vendored::double_conversion::StringBuilder", align 8
  call void @llvm.lifetime.start.p0(i64 24, ptr nonnull %5) #8
  store ptr %2, ptr %5, align 8, !tbaa !20
  %6 = getelementptr inbounds nuw i8, ptr %5, i64 8
  store i32 %3, ptr %6, align 8, !tbaa !22
  %7 = getelementptr inbounds nuw i8, ptr %5, i64 16
  store i32 0, ptr %7, align 8, !tbaa !23
  %8 = load ptr, ptr %0, align 8, !tbaa !18
  %9 = invoke noundef zeroext i1 @_ZNK14arrow_vendored17double_conversion23DoubleToStringConverter20ToShortestIeeeNumberEdPNS0_13StringBuilderENS1_8DtoaModeE(ptr noundef nonnull align 8 dereferenceable(48) %8, double noundef %1, ptr noundef nonnull %5, i32 noundef 0)
          to label %_ZNK14arrow_vendored17double_conversion23DoubleToStringConverter10ToShortestEdPNS0_13StringBuilderE.exit unwind label %16

_ZNK14arrow_vendored17double_conversion23DoubleToStringConverter10ToShortestEdPNS0_13StringBuilderE.exit: ; preds = %4
  %10 = load i32, ptr %7, align 8, !tbaa !23
  %11 = icmp slt i32 %10, 0
  br i1 %11, label %_ZN14arrow_vendored17double_conversion13StringBuilderD2Ev.exit, label %12

12:                                               ; preds = %_ZNK14arrow_vendored17double_conversion23DoubleToStringConverter10ToShortestEdPNS0_13StringBuilderE.exit
  %13 = load ptr, ptr %5, align 8, !tbaa !20
  %14 = zext nneg i32 %10 to i64
  %15 = getelementptr inbounds nuw i8, ptr %13, i64 %14
  store i8 0, ptr %15, align 1, !tbaa !25
  br label %_ZN14arrow_vendored17double_conversion13StringBuilderD2Ev.exit

_ZN14arrow_vendored17double_conversion13StringBuilderD2Ev.exit: ; preds = %_ZNK14arrow_vendored17double_conversion23DoubleToStringConverter10ToShortestEdPNS0_13StringBuilderE.exit, %12
  call void @llvm.lifetime.end.p0(i64 24, ptr nonnull %5) #8
  ret i32 %10

16:                                               ; preds = %4
  %17 = landingpad { ptr, i32 }
          cleanup
  %18 = load i32, ptr %7, align 8, !tbaa !23
  %19 = icmp slt i32 %18, 0
  br i1 %19, label %_ZN14arrow_vendored17double_conversion13StringBuilderD2Ev.exit5, label %20

20:                                               ; preds = %16
  %21 = load ptr, ptr %5, align 8, !tbaa !20
  %22 = zext nneg i32 %18 to i64
  %23 = getelementptr inbounds nuw i8, ptr %21, i64 %22
  store i8 0, ptr %23, align 1, !tbaa !25
  br label %_ZN14arrow_vendored17double_conversion13StringBuilderD2Ev.exit5

_ZN14arrow_vendored17double_conversion13StringBuilderD2Ev.exit5: ; preds = %16, %20
  call void @llvm.lifetime.end.p0(i64 24, ptr nonnull %5) #8
  resume { ptr, i32 } %17
}